CCS PCH C Compiler, Version 5.015, 5967               03-Oct-22 20:24

               Filename:   C:\Users\NguyenMinhTri\Desktop\TT VXL\BAI_615_LCD_8LED_GIO_PHUT_GIAY.lst

               ROM used:   1440 bytes (4%)
                           Largest free fragment is 31324
               RAM used:   56 (3%) at main() level
                           66 (3%) worst case
               Stack used: 8 locations (7 in main + 1 for interrupts)
               Stack size: 31

*
0000:  GOTO   04F0
*
0008:  MOVWF  04
000A:  MOVFF  FD8,05
000E:  MOVFF  FE0,06
0012:  MOVLB  0
0014:  MOVFF  FE9,0C
0018:  MOVFF  FEA,07
001C:  MOVFF  FE1,08
0020:  MOVFF  FE2,09
0024:  MOVFF  FD9,0A
0028:  MOVFF  FDA,0B
002C:  MOVFF  FF3,12
0030:  MOVFF  FF4,13
0034:  MOVFF  FFA,14
0038:  MOVFF  00,0E
003C:  MOVFF  01,0F
0040:  MOVFF  02,10
0044:  MOVFF  03,11
0048:  BTFSS  F9D.0
004A:  GOTO   0054
004E:  BTFSC  F9E.0
0050:  GOTO   00DE
0054:  MOVFF  0E,00
0058:  MOVFF  0F,01
005C:  MOVFF  10,02
0060:  MOVFF  11,03
0064:  MOVFF  0C,FE9
0068:  MOVFF  07,FEA
006C:  BSF    07.7
006E:  MOVFF  08,FE1
0072:  MOVFF  09,FE2
0076:  MOVFF  0A,FD9
007A:  MOVFF  0B,FDA
007E:  MOVFF  12,FF3
0082:  MOVFF  13,FF4
0086:  MOVFF  14,FFA
008A:  MOVF   04,W
008C:  MOVFF  06,FE0
0090:  MOVFF  05,FD8
0094:  RETFIE 0
.................... #include <tv_pickit2_shift_1_proteus.c> 
.................... #INCLUDE    <18F4550.H> 
.................... //////////// Standard Header file for the PIC18F4550 device //////////////// 
.................... /////////////////////////////////////////////////////////////////////////// 
.................... ////        (C) Copyright 1996, 2013 Custom Computer Services          //// 
.................... //// This source code may only be used by licensed users of the CCS C  //// 
.................... //// compiler.  This source code may only be distributed to other      //// 
.................... //// licensed users of the CCS C compiler.  No other use, reproduction //// 
.................... //// or distribution is permitted without written permission.          //// 
.................... //// Derivative programs created using this software in object code    //// 
.................... //// form are not restricted in any way.                               //// 
.................... /////////////////////////////////////////////////////////////////////////// 
.................... #device PIC18F4550 
0096:  MOVFF  FF2,0D
009A:  BCF    FF2.7
009C:  CLRF   FF7
009E:  ADDLW  B0
00A0:  MOVWF  FF6
00A2:  MOVLW  00
00A4:  ADDWFC FF7,F
00A6:  TBLRD*+
00A8:  MOVF   FF5,W
00AA:  BTFSC  0D.7
00AC:  BSF    FF2.7
00AE:  RETURN 0
00B0:  DATA C0,F9
00B2:  DATA A4,B0
00B4:  DATA 99,92
00B6:  DATA 82,F8
00B8:  DATA 80,90
00BA:  DATA 88,83
00BC:  DATA C6,A1
00BE:  DATA 86,8E
00C0:  MOVFF  FF2,0D
00C4:  BCF    FF2.7
00C6:  CLRF   FF7
00C8:  ADDLW  DA
00CA:  MOVWF  FF6
00CC:  MOVLW  00
00CE:  ADDWFC FF7,F
00D0:  TBLRD*+
00D2:  MOVF   FF5,W
00D4:  BTFSC  0D.7
00D6:  BSF    FF2.7
00D8:  RETURN 0
00DA:  DATA 80,C0
00DC:  DATA 94,D4
*
00EE:  DATA 64,6F
00F0:  DATA 6E,67
00F2:  DATA 20,68
00F4:  DATA 6F,3A
00F6:  DATA 00,00
*
0278:  TBLRD*+
027A:  MOVF   FF5,F
027C:  BZ    0296
027E:  MOVFF  FF6,38
0282:  MOVFF  FF7,39
0286:  MOVFF  FF5,3A
028A:  RCALL  0262
028C:  MOVFF  38,FF6
0290:  MOVFF  39,FF7
0294:  BRA    0278
0296:  GOTO   0532 (RETURN)
*
02C4:  MOVF   39,W
02C6:  XORWF  3A,W
02C8:  ANDLW  80
02CA:  MOVWF  3C
02CC:  BTFSS  39.7
02CE:  BRA    02D4
02D0:  COMF   39,F
02D2:  INCF   39,F
02D4:  BTFSS  3A.7
02D6:  BRA    02DC
02D8:  COMF   3A,F
02DA:  INCF   3A,F
02DC:  MOVF   3A,W
02DE:  CLRF   01
02E0:  SUBWF  39,W
02E2:  BC    02EA
02E4:  MOVFF  39,00
02E8:  BRA    0302
02EA:  CLRF   00
02EC:  MOVLW  08
02EE:  MOVWF  3B
02F0:  RLCF   39,F
02F2:  RLCF   00,F
02F4:  MOVF   3A,W
02F6:  SUBWF  00,W
02F8:  BTFSC  FD8.0
02FA:  MOVWF  00
02FC:  RLCF   01,F
02FE:  DECFSZ 3B,F
0300:  BRA    02F0
0302:  BTFSS  3C.7
0304:  BRA    030A
0306:  COMF   01,F
0308:  INCF   01,F
030A:  RETURN 0
....................  
.................... #list 
....................  
.................... #DEVICE     ADC=10 
.................... #FUSES      NOWDT,PUT,HS,NOPROTECT,NOLVP,CPUDIV1 
.................... #USE        DELAY(CLOCK=20000000) 
*
01DA:  CLRF   FEA
01DC:  MOVLW  38
01DE:  MOVWF  FE9
01E0:  MOVF   FEF,W
01E2:  BZ    01FE
01E4:  MOVLW  06
01E6:  MOVWF  01
01E8:  CLRF   00
01EA:  DECFSZ 00,F
01EC:  BRA    01EA
01EE:  DECFSZ 01,F
01F0:  BRA    01E8
01F2:  MOVLW  7B
01F4:  MOVWF  00
01F6:  DECFSZ 00,F
01F8:  BRA    01F6
01FA:  DECFSZ FEF,F
01FC:  BRA    01E4
01FE:  RETURN 0
.................... #USE        I2C(MASTER,SLOW,SDA=PIN_B0,SCL=PIN_B1) 
....................  
.................... //#USE        rs232(baud=9600, xmit=PIN_C6,rcv=PIN_C7) 
.................... //NUT NHAN: 
.................... #DEFINE  BT0     PIN_B5 
.................... #DEFINE  BT1     PIN_B4 
.................... #DEFINE  BT2     PIN_B3 
.................... #DEFINE  BT3     PIN_B2 
....................  
.................... #DEFINE  ON      BT0       //DK LED DON, MOTOR 
.................... #DEFINE  OFF     BT1 
.................... #DEFINE  INV     BT2 
....................  
.................... #DEFINE  UP      BT0    //DK LED DON 
.................... #DEFINE  DW      BT1 
.................... #DEFINE  CLR     BT2 
.................... #DEFINE  MOD     BT3 
....................  
.................... #DEFINE  STOP    BT3 
....................  
.................... #DEFINE  ON1     BT0      
.................... #DEFINE  OFF1    BT1 
.................... #DEFINE  ON2     BT2        
.................... #DEFINE  OFF2    BT3 
....................  
....................  
.................... #DEFINE     TRIGGER      PIN_E2 
.................... #DEFINE     ECHO         PIN_E1 
.................... //   IC74138_A    PIN_B6   //OUTPUT GIAI MA 2 SANG 4 TICH CUC MUC 0 
.................... //   IC74138_B    PIN_B7   //OUTPUT GIAI MA 2 SANG 4 TICH CUC MUC 0 
....................  
.................... //          ENCODER  PIN_C0   //RC0/T13CKI 
....................  
.................... //          CB_KC    PIN_A2   //RA2/AN2 
.................... //          PIR      PIN_A3   //RA3/AN3 
.................... //          CBXUNG   PIN_A4   //RA4/T0CKI 
.................... //          LEDTHU   PIN_A4   //RA4/T0CKI//SW802 
....................  
.................... //          CB_KCSA_TRIGGER  PIN_E2   //RE2/SDO  DUNG CHUNG 
.................... //          CB_KCSA_RCHO     PIN_E1   //RE1 
....................  
.................... //          CB_TCS3200_OUT    PIN_E1   //RE1 //CAM BIEN MAU TCS3200 
.................... //          CB_TCS3200_S0     B12      //LAY TU MBI5026 
.................... //          CB_TCS3200_S1     B13      //LAY TU MBI5026 
.................... //          CB_TCS3200_S2     B14      //LAY TU MBI5026 
.................... //          CB_TCS3200_S3     B15      //LAY TU MBI5026 
....................  
.................... //          CB_POWER  SW803 
.................... //          CB_GAS      AIN3_PCF8591T   //RE1 
.................... //          CB_QUANG    AIN2_PCF8591T    
.................... //          CB_LM35B    AIN1_PCF8591T   //RA1/AN1 
.................... //          CB_LM35A    AIN0_PCF8591T   //RE1/AN0 
....................  
.................... //XXXXXXXXXXXXXXXXXXXXXXXXXXXXXXXXXXXXXXXXXXXXXXXXX 
.................... #DEFINE      ENABLE_573A      PIN_D1         //CS0 CUA A 
.................... #DEFINE      ENABLE_573B      PIN_D0         //CS1 CUA B 
.................... //XXXXXXXXXXXXXXXXXXXXXXXXXXXXXXXXXXXXXXXXXXXXXXXXX 
.................... #DEFINE      SSDO             PIN_E2         //CHUNG TAT CA 
.................... #DEFINE      SSCK             PIN_E0         //CHUNG TAT CA 
.................... //XXXXXXXXXXXXXXXXXXXXXXXXXXXXXXXXXXXXXXXXXXXXXXXXX 
.................... #DEFINE      RCK_4LED7DOAN    PIN_D7         //A - 4 BYTE 
.................... #DEFINE      G_4LED7DOAN      PIN_D6         //A - 4 BYTE 
.................... //XXXXXXXXXXXXXXXXXXXXXXXXXXXXXXXXXXXXXXXXXXXX     
.................... #DEFINE      RCK_MATRANLED    PIN_D7         //B - 3 BYTE DAO 
.................... #DEFINE      G_MATRANLED      PIN_D6         //B - 3 BYTE DAO 
.................... //XXXXXXXXXXXXXXXXXXXXXXXXXXXXXXXXXXXXXXXXXXXXXXXXX 
.................... #DEFINE      RCK_32LED        PIN_D5         //A - 4 BYTE 
.................... #DEFINE      G_32LED          PIN_D4         //A - 4 BYTE 
.................... //XXXXXXXXXXXXXXXXXXXXXXXXXXXXXXXXXXXXXXXXXXXX  
.................... #DEFINE      RCK_8LEDQUET     PIN_D5         //B - 2 BYTE DAO 
.................... #DEFINE      G_8LEDQUET       PIN_D4         //B - 2 BYTE DAO 
.................... //XXXXXXXXXXXXXXXXXXXXXXXXXXXXXXXXXXXXXXXXXXXXXXXXX 
.................... #DEFINE      RCK_LCD20X4      PIN_D3         //A - 2 BYTE DAO 
.................... #DEFINE      G_LCD20X4         PIN_D2         //A - 2 BYTE DAO 
.................... //XXXXXXXXXXXXXXXXXXXXXXXXXXXXXXXXXXXXXXXXXXXX  
.................... #DEFINE      RCK_BUZERELAY    PIN_D3     //B - 1 BYTE  
.................... #DEFINE      G_BUZERELAY      PIN_D2         //B - 1 BYTE  
....................  
.................... VOID XUAT_LCD20X4(UNSIGNED INT8 LCD_SIGNAL,LCD_INS_HTHI); 
....................  
.................... VOID XUAT_BUZZER_RELAY(); 
.................... //XXXXXXXXXXXXXXXXXXXXXXXXXXXXXXXXXXXXXXXXXXXX    
.................... #DEFINE     CHOT_2_IC_74573_A_B  OUTPUT_D(0XFC) 
....................  
.................... UNSIGNED INT8 TIN_HIEU_DK_74573_A; 
.................... #BIT G_4A         = TIN_HIEU_DK_74573_A.6 
.................... #BIT G_32A        = TIN_HIEU_DK_74573_A.4 
.................... #BIT G_LCDA       = TIN_HIEU_DK_74573_A.2 
.................... //XXXXXXXXXXXXXXXXXXXXXXXXXXXXXXXXXXXXXXXXXXXX          
.................... #DEFINE     MO_32_LED_DON        G_32A=0; //OUTPUT_LOW(G_32LED)  
.................... #DEFINE     TAT_32_LED_DON       G_32A=1; //OUTPUT_HIGH(G_32LED)  
.................... //XXXXXXXXXXXXXXXXXXXXXXXXXXXXXXXXXXXXXXXXXXXX          
.................... #DEFINE     MO_4_LED_7DOAN       G_4A=0;  //OUTPUT_LOW(G_4LED7DOAN) 
.................... #DEFINE     TAT_4_LED_7DOAN      G_4A=1;  //OUTPUT_HIGH(G_4LED7DOAN) 
.................... //XXXXXXXXXXXXXXXXXXXXXXXXXXXXXXXXXXXXXXXXXXXX  
.................... #DEFINE     MO_GLCD_LCD           G_LCDA=0;   //OUTPUT_LOW(G_LCD20X4) 
.................... #DEFINE     TAT_GLCD_LCD          G_LCDA=1;   // OUTPUT_LOW(G_LCD20X4) 
....................  
.................... UNSIGNED INT8 TIN_HIEU_DK_74573_B;   
.................... #BIT G_MTB        = TIN_HIEU_DK_74573_B.6 
.................... #BIT G_8B         = TIN_HIEU_DK_74573_B.4 
.................... #BIT G_RBDCB      = TIN_HIEU_DK_74573_B.2 
.................... //XXXXXXXXXXXXXXXXXXXXXXXXXXXXXXXXXXXXXXXXXXXX  
.................... #DEFINE     MO_LED_MATRAN        G_MTB=0; //OUTPUT_LOW(G_MATRANLED) 
.................... #DEFINE     TAT_LED_MATRAN       G_MTB=1; //OUTPUT_LOW(G_MATRANLED) 
.................... //XXXXXXXXXXXXXXXXXXXXXXXXXXXXXXXXXXXXXXXXXXXX        
.................... #DEFINE     MO_8_LED_QUET        G_8B=0;  //OUTPUT_LOW(G_8LEDQUET) 
.................... #DEFINE     TAT_8_LED_QUET       G_8B=1;  //OUTPUT_LOW(G_8LEDQUET) 
.................... //XXXXXXXXXXXXXXXXXXXXXXXXXXXXXXXXXXXXXXXXXXXX          
.................... #DEFINE     MO_RELAY_BUZZER_DC   G_RBDCB=0;  //OUTPUT_LOW(G_BUZERELAY) 
.................... #DEFINE     TAT_RELAY_BUZZER_DC  G_RBDCB=1;  //OUTPUT_LOW(G_BUZERELAY) 
....................  
.................... //XXXXXXXXXXXXXXXXXXXXXXXXXXXXXXXXXXXXXXXXXXXX 
.................... //CHUONG TRINH KIEM TRA PHIM BT1 
.................... //XXXXXXXXXXXXXXXXXXXXXXXXXXXXXXXXXXXXXXXXXXXX 
.................... UNSIGNED INT8 DL_BTN=0; 
.................... INT1 PHIM_BT0(UNSIGNED INT16 DL) 
.................... {   
....................     IF (!INPUT(BT0)) 
....................     {   
....................       DL_BTN++; 
....................        
....................       IF (DL_BTN>= DL) 
....................          { 
....................             DL_BTN =0; 
....................             RETURN(1); 
....................          } 
....................       ELSE RETURN(0); 
....................     } 
....................     ELSE    RETURN(0); 
.................... }  
.................... //XXXXXXXXXXXXXXXXXXXXXXXXXXXXXXXXXXXXXXXXXXXX 
.................... //CHUONG TRINH KIEM TRA PHIM BT1 
.................... //XXXXXXXXXXXXXXXXXXXXXXXXXXXXXXXXXXXXXXXXXXXX 
.................... INT1 PHIM_BT1(UNSIGNED INT16 DL ) 
.................... {   
....................     IF (!INPUT(BT1)) 
....................     {   
....................       DL_BTN++; 
....................        
....................       IF (DL_BTN>= DL) 
....................          { 
....................             DL_BTN =0; 
....................             RETURN(1); 
....................          } 
....................       ELSE RETURN(0); 
....................     } 
....................     ELSE    RETURN(0); 
.................... }  
.................... //XXXXXXXXXXXXXXXXXXXXXXXXXXXXXXXXXXXXXXXXXXXX 
.................... //CHUONG TRINH KIEM TRA PHIM BT2       
.................... //XXXXXXXXXXXXXXXXXXXXXXXXXXXXXXXXXXXXXXXXXXXX                                     
.................... INT1 PHIM_BT2(UNSIGNED INT16 DL ) 
.................... {                                         
....................     IF (!INPUT(BT2)) 
....................     {   
....................       DL_BTN++; 
....................        
....................       IF (DL_BTN>= DL) 
....................          { 
....................             DL_BTN =0; 
....................             RETURN(1); 
....................          } 
....................       ELSE RETURN(0); 
....................     } 
....................     ELSE    RETURN(0); 
....................                                           
.................... }       
....................  
.................... //XXXXXXXXXXXXXXXXXXXXXXXXXXXXXXXXXXXXXXXXXXXX 
.................... //CHUONG TRINH KIEM TRA PHIM BT3 
.................... //XXXXXXXXXXXXXXXXXXXXXXXXXXXXXXXXXXXXXXXXXXXX 
.................... INT1 PHIM_BT3(UNSIGNED INT16 DL,  UNSIGNED INT8 SOLAN  ) 
.................... {   
....................     IF (!INPUT(BT3)) 
....................     {   
....................       DL_BTN++; 
....................       IF(DL_BTN==1) RETURN(1); 
....................       ELSE 
....................       { 
....................          IF (DL_BTN>= DL) 
....................          DL_BTN =SOLAN; 
....................       } 
....................     } 
....................     ELSE    
....................     { 
....................       //DL_BTN =0; 
....................       RETURN(0); 
....................     } 
.................... }  
.................... //XXXXXXXXXXXXXXXXXXXXXXXXXXXXXXXXXXXXXXXXXXXX 
.................... //KHAI BAO DU LIEU 16 BIT CHO MODULE RELAY, TRIAC, BUZZER, DONG CO 
.................... //XXXXXXXXXXXXXXXXXXXXXXXXXXXXXXXXXXXXXXXXXXXX 
.................... UNSIGNED INT16 RBDC; 
.................... #BIT STEP_MOTOR_ENABLE  = RBDC.0    //1=ENA,0=DIS 
.................... #BIT STEP_MOTOR_IN1     = RBDC.1     
.................... #BIT STEP_MOTOR_IN2     = RBDC.2 
.................... #BIT STEP_MOTOR_IN3     = RBDC.3 
.................... #BIT STEP_MOTOR_IN4     = RBDC.4 
.................... #BIT DC_ENABLE          = RBDC.5    //1=ENA,0=DIS 
.................... #BIT PWRKEY             = RBDC.6    //KHOI TAO SIM900 
....................  
.................... #BIT BUZZER             = RBDC.8    //1=ON,0=OFF 
.................... #BIT TRIAC_1            = RBDC.9    //1=ON,0=OFF 
.................... #BIT TRIAC_2            = RBDC.10   //1=ON,0=OFF 
.................... #BIT RELAY_1            = RBDC.11   //0=ON,1=OFF 
.................... #BIT RELAY_2            = RBDC.12   //0=ON,1=OFF 
....................  
.................... //HAM 103 
.................... //XXXXXXXXXXXXXXXXXXXXXXXXXXXXXXXXXXXXXXXXXXXX 
.................... //CHUONG TRINH CON KHOI TAO IC CHOT 
.................... //XXXXXXXXXXXXXXXXXXXXXXXXXXXXXXXXXXXXXXXXXXXX          
.................... #DEFINE     CHO_IC_74573_A_GOI_DU_LIEU     OUTPUT_HIGH(ENABLE_573A) 
.................... #DEFINE     CHOT_IC_74573_A_GOI_DU_LIEU    OUTPUT_LOW(ENABLE_573A) 
....................  
.................... #DEFINE     CHO_IC_74573_B_GOI_DU_LIEU     OUTPUT_HIGH(ENABLE_573B) 
.................... #DEFINE     CHOT_IC_74573_B_GOI_DU_LIEU    OUTPUT_LOW(ENABLE_573B) 
.................... VOID MO_IC_74573_A_THONG_DL(); 
....................  
.................... //XXXXXXXXXXXXXXXXXXXXXXXXXXXXXXXXXXXXXXXXXXXX    
.................... CONST UNSIGNED CHAR MA7DOAN[16]= {0XC0,0XF9,0xA4,0XB0,0X99,0X92,0X82,0XF8, 
.................... 0X80,0X90,0x88, 0x83, 0xC6, 0xA1, 0x86, 0x8E}; 
.................... #DEFINE     MASO0    0XC0 
.................... #DEFINE     MASO1    0XF9 
.................... #DEFINE     MASO2    0XA4 
.................... #DEFINE     MASO3    0XB0 
.................... #DEFINE     MASO4    0X99 
.................... #DEFINE     MASO5    0X92 
.................... #DEFINE     MASO6    0X82 
.................... #DEFINE     MASO7    0XF8 
....................  
.................... //XXXXXXXXXXXXXXXXXXXXXXXXXXXXXXXXXXXXXXXXXXXX  
.................... //HAM 102 
.................... //XXXXXXXXXXXXXXXXXXXXXXXXXXXXXXXXXXXXXXXXXXXX     
.................... //XUAT 1 BYTE RA THANH GHI DICH 
.................... //XXXXXXXXXXXXXXXXXXXXXXXXXXXXXXXXXXXXXXXXXXXX     
.................... VOID XUAT_1BYTE(UNSIGNED INT8 BYTEXUAT) 
.................... { 
....................    UNSIGNED INT8   SB,X;    
....................    #BIT BSERI  = X.7 
....................    X = BYTEXUAT; 
*
0116:  MOVFF  3F,41
....................    FOR (SB=0;SB<8;SB++) 
011A:  CLRF   40
011C:  MOVF   40,W
011E:  SUBLW  07
0120:  BNC   013E
....................       {                                                  
....................          OUTPUT_BIT(SSDO,BSERI);     
0122:  BTFSC  41.7
0124:  BRA    012A
0126:  BCF    F8D.2
0128:  BRA    012C
012A:  BSF    F8D.2
012C:  BCF    F96.2
....................          OUTPUT_LOW(SSCK); OUTPUT_HIGH(SSCK); 
012E:  BCF    F96.0
0130:  BCF    F8D.0
0132:  BCF    F96.0
0134:  BSF    F8D.0
....................          X= X<<1;          
0136:  BCF    FD8.0
0138:  RLCF   41,F
013A:  INCF   40,F
013C:  BRA    011C
....................      } 
013E:  RETURN 0
.................... } 
.................... //XXXXXXXXXXXXXXXXXXXXXXXXXXXXXXXXXXXXXXXXXXXX  
.................... //HAM 301 
.................... //XXXXXXXXXXXXXXXXXXXXXXXXXXXXXXXXXXXXXXXXXXXX 
.................... //CHUONG TRINH CON XUAT 4 BYTE RA 32 LED DON 
.................... //XXXXXXXXXXXXXXXXXXXXXXXXXXXXXXXXXXXXXXXXXXXX 
.................... VOID XUAT_32LED_DON_4BYTE(UNSIGNED INT8 BLD3,BLD2,BLD1,BLD0) 
.................... {      
....................       XUAT_1BYTE(BLD3);           
....................       XUAT_1BYTE(BLD2); 
....................       XUAT_1BYTE(BLD1);           
....................       XUAT_1BYTE(BLD0);             
....................       MO_32_LED_DON;       
....................       MO_IC_74573_A_THONG_DL();             
....................       OUTPUT_HIGH(RCK_32LED);    OUTPUT_LOW(RCK_32LED); 
....................       CHOT_IC_74573_A_GOI_DU_LIEU;       
.................... } 
.................... //HAM 302 
.................... //XXXXXXXXXXXXXXXXXXXXXXXXXXXXXXXXXXXXXXXXXXXX 
.................... //CHUONG TRINH CON XUAT 2 WORD 16 BITRA 32 LED DON 
.................... //XXXXXXXXXXXXXXXXXXXXXXXXXXXXXXXXXXXXXXXXXXXX 
.................... VOID XUAT_32LED_DON_2WORD(UNSIGNED INT16 WLD1, UNSIGNED INT16 WLD0) 
.................... {      
....................      UNSIGNED INT8  B3,B2,B1,B0; 
....................      B3 = WLD1>>8;  B2 = WLD1;  
....................      B1 = WLD0>>8;  B0 = WLD0; 
....................      XUAT_32LED_DON_4BYTE(B3,B2,B1,B0); 
.................... } 
.................... //HAM 303 
.................... //XXXXXXXXXXXXXXXXXXXXXXXXXXXXXXXXXXXXXXXXXXXX 
.................... //CHUONG TRINH CON XUAT 1 DOUBLE WORD RA 32 LED DON 
.................... //XXXXXXXXXXXXXXXXXXXXXXXXXXXXXXXXXXXXXXXXXXXX 
.................... VOID XUAT_32LED_DON_1DW(UNSIGNED LONG LONG DWLD) 
.................... {      
....................      UNSIGNED INT16  WD1,WD0; 
....................      WD1 = DWLD>>16;  WD0 = DWLD; 
....................      XUAT_32LED_DON_2WORD(WD1,WD0); 
.................... } 
....................  
.................... //HAM 304 
.................... //XXXXXXXXXXXXXXXXXXXXXXXXXXXXXXXXXXXXXXXXXXXX 
.................... //CHUONG TRINH CON MO 32 LED DON SANG 
.................... //XXXXXXXXXXXXXXXXXXXXXXXXXXXXXXXXXXXXXXXXXXXX 
.................... VOID MO_32LED_DON() 
.................... {         
....................      XUAT_32LED_DON_1DW(0XFFFFFFFF); 
.................... } 
.................... //HAM 305 
.................... //XXXXXXXXXXXXXXXXXXXXXXXXXXXXXXXXXXXXXXXXXXXX 
.................... //CHUONG TRINH CON TAT 32 LED DON  
.................... //XXXXXXXXXXXXXXXXXXXXXXXXXXXXXXXXXXXXXXXXXXXX 
.................... VOID TAT_32LED_DON() 
.................... {         
....................      XUAT_32LED_DON_1DW(0); 
.................... } 
.................... //XXXXXXXXXXXXXXXXXXXXXXXXXXXXXXXXXXXXXXXXXXXX     
.................... //XUAT 1 BIT ROI TRA LAI KET QUA SAU KHI DICH DI 1 BIT 
.................... //XXXXXXXXXXXXXXXXXXXXXXXXXXXXXXXXXXXXXXXXXXXX     
.................... UNSIGNED  INT8 XUAT_1BIT(UNSIGNED INT8 BYTEXUAT) 
.................... { 
....................       UNSIGNED INT8   XBITX;    
....................       #BIT BSERIX  = XBITX.0 
....................       XBITX = BYTEXUAT; 
....................                                              
....................       OUTPUT_BIT(SSDO,BSERIX);     
....................       OUTPUT_LOW(SSCK); OUTPUT_HIGH(SSCK); 
....................       XBITX= XBITX>>1;    
....................       RETURN(XBITX);   
.................... } 
.................... //XXXXXXXXXXXXXXXXXXXXXXXXXXXXXXXXXXXXXXXXXXXX  
.................... //HAM 101 
.................... //XXXXXXXXXXXXXXXXXXXXXXXXXXXXXXXXXXXXXXXXXXXX     
.................... //HAM KHOI TAO CAC PORT VA IC CHOT 
.................... //XXXXXXXXXXXXXXXXXXXXXXXXXXXXXXXXXXXXXXXXXXXX     
....................    VOID SET_UP_PORT_IC_CHOT() 
.................... {      
....................       SET_TRIS_D(0x00);     
*
00F8:  MOVLW  00
00FA:  MOVWF  F95
....................       SET_TRIS_E(0X00); 
00FC:  MOVWF  F96
....................       OUTPUT_D(0XFF); 
00FE:  CLRF   F95
0100:  SETF   F8C
....................       TIN_HIEU_DK_74573_A=0XFF;   
0102:  SETF   16
....................       TIN_HIEU_DK_74573_B=0XFF;       
0104:  SETF   17
....................       CHOT_IC_74573_A_GOI_DU_LIEU; 
0106:  BCF    F95.1
0108:  BCF    F8C.1
....................       CHOT_IC_74573_B_GOI_DU_LIEU;   
010A:  BCF    F95.0
010C:  BCF    F8C.0
....................       RBDC=0; 
010E:  CLRF   1A
0110:  CLRF   19
0112:  GOTO   0520 (RETURN)
.................... } 
.................... //HAM 104 
.................... //XXXXXXXXXXXXXXXXXXXXXXXXXXXXXXXXXXXXXXXXXXXX     
.................... //XUAT CÁC THIEU DIEU KHIEN  
.................... //GIU NGUYEN CAC TRANG THAI CUA 2 MODULE KHAC 
.................... //XXXXXXXXXXXXXXXXXXXXXXXXXXXXXXXXXXXXXXXXXXXX     
.................... VOID MO_IC_74573_A_THONG_DL() 
.................... {      
....................       OUTPUT_D(0X00); 
*
0140:  CLRF   F95
0142:  CLRF   F8C
....................       OUTPUT_BIT(G_32LED,G_32A); 
0144:  BTFSC  16.4
0146:  BRA    014C
0148:  BCF    F8C.4
014A:  BRA    014E
014C:  BSF    F8C.4
014E:  BCF    F95.4
....................       OUTPUT_BIT(G_4LED7DOAN,G_4A); 
0150:  BTFSC  16.6
0152:  BRA    0158
0154:  BCF    F8C.6
0156:  BRA    015A
0158:  BSF    F8C.6
015A:  BCF    F95.6
....................       OUTPUT_BIT(G_LCD20X4,G_LCDA);   
015C:  BTFSC  16.2
015E:  BRA    0164
0160:  BCF    F8C.2
0162:  BRA    0166
0164:  BSF    F8C.2
0166:  BCF    F95.2
....................       CHO_IC_74573_A_GOI_DU_LIEU; 
0168:  BCF    F95.1
016A:  BSF    F8C.1
016C:  RETURN 0
.................... } 
.................... VOID MO_IC_74573_B_THONG_DL() 
.................... {      
....................       OUTPUT_D(0X00); 
....................       OUTPUT_BIT(G_MATRANLED,G_MTB); 
....................       OUTPUT_BIT(G_8LEDQUET,G_8B); 
....................       OUTPUT_BIT(G_BUZERELAY,G_RBDCB);  
....................       CHO_IC_74573_B_GOI_DU_LIEU; 
.................... } 
.................... //ham 401 
.................... //XXXXXXXXXXXXXXXXXXXXXXXXXXXXXXXXXXXXXXXXXXXX 
.................... //CHUONG TRINH CON XUAT 4 BYTE RA 4 LED 7 DOAN 
.................... //XXXXXXXXXXXXXXXXXXXXXXXXXXXXXXXXXXXXXXXXXXXX 
.................... VOID XUAT_4LED_7DOAN_4SO(UNSIGNED INT BL743,BL742,BL741,BL740) 
.................... {      
....................       XUAT_1BYTE(BL740);   XUAT_1BYTE(BL741); 
*
03C8:  MOVFF  3C,3F
03CC:  RCALL  0116
03CE:  MOVFF  3B,3F
03D2:  RCALL  0116
....................       XUAT_1BYTE(BL742);   XUAT_1BYTE(BL743); 
03D4:  MOVFF  3A,3F
03D8:  RCALL  0116
03DA:  MOVFF  39,3F
03DE:  RCALL  0116
....................        
....................       MO_4_LED_7DOAN; 
03E0:  BCF    16.6
....................       MO_IC_74573_A_THONG_DL(); 
03E2:  RCALL  0140
....................         
....................       OUTPUT_LOW(RCK_4LED7DOAN);   OUTPUT_HIGH(RCK_4LED7DOAN);  
03E4:  BCF    F95.7
03E6:  BCF    F8C.7
03E8:  BCF    F95.7
03EA:  BSF    F8C.7
....................       CHOT_IC_74573_A_GOI_DU_LIEU; 
03EC:  BCF    F95.1
03EE:  BCF    F8C.1
03F0:  GOTO   043A (RETURN)
.................... } 
.................... //ham 404 
.................... VOID XUAT_4LED_7DOAN_3SO(UNSIGNED INT BL742,BL741,BL740) 
.................... {      
....................      XUAT_4LED_7DOAN_4SO(0XFF,BL742,BL741,BL740); 
.................... } 
.................... //ham 403 
.................... VOID XUAT_4LED_7DOAN_2SO(UNSIGNED INT BL741,BL740) 
.................... {      
....................      XUAT_4LED_7DOAN_4SO(0XFF,0XFF,BL741,BL740); 
.................... } 
.................... //ham 402 
.................... VOID XUAT_4LED_7DOAN_1SO(UNSIGNED INT BL740) 
.................... {      
....................      XUAT_4LED_7DOAN_4SO(0XFF,0XFF,0XFF,BL740); 
.................... } 
....................  
.................... //ham 405 
.................... //XXXXXXXXXXXXXXXXXXXXXXXXXXXXXXXXXXXXXXXXXXXXXXXXXXXXXXXXXXXXX 
.................... //CHUONG TRINH CON HIEN THI DU LIEU 16 BIT TREN 4 LED 7 DOAN 
.................... //XXXXXXXXXXXXXXXXXXXXXXXXXXXXXXXXXXXXXXXXXXXXXXXXXXXXXXXXXXXXX 
.................... UNSIGNED CHAR DONVI4,CHUC4,TRAM4,NGAN4; 
.................... VOID  XUAT_4LED_7DOAN_GIAIMA_XOA_SO0 (UNSIGNED INT16 TAM) 
.................... {          
....................       DONVI4 = MA7DOAN[TAM %10];          
....................       CHUC4  = MA7DOAN[TAM/10%10]; 
....................       TRAM4  = MA7DOAN[TAM/100%10];  
....................       NGAN4  = MA7DOAN[TAM/1000%10];        
....................       IF (NGAN4==0XC0) 
....................       { 
....................          NGAN4=0XFF; 
....................          IF (TRAM4==0XC0) 
....................          { 
....................             TRAM4=0XFF; 
....................             IF (CHUC4==0XC0)   CHUC4=0XFF; 
....................          } 
....................       } 
....................       XUAT_4LED_7DOAN_4SO(NGAN4,TRAM4,CHUC4,DONVI4);    
.................... } 
.................... UNSIGNED INT8 LCDDATA=0;  
.................... UNSIGNED INT8 LCDCONTROL=0; 
.................... UNSIGNED INT8 GLCDDATA=0; 
.................... UNSIGNED INT8 GLCDCONTROL=0;  
.................... //HAM 701 
.................... //XXXXXXXXXXXXXXXXXXXXXXXXXXXXXXXXXXXXXXXXXXXXXXXXXXXXXXXXXXXXX 
.................... //CHUONG TRINH CON XUAT DU LIEU 4 BYTE RA GLCD VA LCD 
.................... //XXXXXXXXXXXXXXXXXXXXXXXXXXXXXXXXXXXXXXXXXXXXXXXXXXXXXXXXXXXXX 
.................... VOID XUAT_GLCD_LCD() 
.................... {       
....................     XUAT_1BYTE(GLCDCONTROL);              
*
016E:  MOVFF  22,3F
0172:  RCALL  0116
....................     XUAT_1BYTE(GLCDDATA); 
0174:  MOVFF  21,3F
0178:  RCALL  0116
....................     XUAT_1BYTE(LCDCONTROL);        
017A:  MOVFF  20,3F
017E:  RCALL  0116
....................     XUAT_1BYTE(LCDDATA);       
0180:  MOVFF  1F,3F
0184:  RCALL  0116
....................        
....................     MO_GLCD_LCD; 
0186:  BCF    16.2
....................     MO_IC_74573_A_THONG_DL();             
0188:  RCALL  0140
....................     OUTPUT_HIGH(RCK_LCD20X4);      
018A:  BCF    F95.3
018C:  BSF    F8C.3
....................     OUTPUT_LOW(RCK_LCD20X4); 
018E:  BCF    F95.3
0190:  BCF    F8C.3
....................     CHOT_IC_74573_A_GOI_DU_LIEU; 
0192:  BCF    F95.1
0194:  BCF    F8C.1
0196:  GOTO   01A8 (RETURN)
.................... } 
.................... //HAM 702 
.................... VOID XUAT_LCD20X4(UNSIGNED INT8 LCD_SIGNAL,LCD_INS_HTHI) 
.................... {      
....................     LCDCONTROL = ~LCD_SIGNAL; 
019A:  MOVF   3D,W
019C:  MOVWF  20
019E:  COMF   20,F
....................     LCDDATA    = ~LCD_INS_HTHI;       
01A0:  MOVFF  3E,1F
01A4:  COMF   1F,F
....................     XUAT_GLCD_LCD(); 
01A6:  BRA    016E
01A8:  RETURN 0
.................... } 
.................... //HAM 703 
.................... VOID XUAT_GLCD128X64(UNSIGNED INT8 GLCD_SIGNAL,GLCD_INS_HTHI) 
.................... {      
....................     GLCDCONTROL = ~GLCD_SIGNAL; 
....................     GLCDDATA    = ~GLCD_INS_HTHI;      
....................     XUAT_GLCD_LCD(); 
.................... } 
.................... //HAM 501 
.................... //XXXXXXXXXXXXXXXXXXXXXXXXXXXXXXXXXXXXXXXXXXXX 
.................... //CHUONG TRINH CON XUAT 2 BYTE RA DK 1 LED QUET SANG 
.................... //XXXXXXXXXXXXXXXXXXXXXXXXXXXXXXXXXXXXXXXXXXXX 
.................... VOID XUAT_8LED_7DOAN_QUET_1(UNSIGNED INT MA,SO_HTHI) 
.................... {      
....................       XUAT_1BYTE(~MA);   XUAT_1BYTE(~SO_HTHI); 
....................        
....................       MO_8_LED_QUET; 
....................       MO_IC_74573_B_THONG_DL(); 
....................        
....................       OUTPUT_HIGH(RCK_8LEDQUET); OUTPUT_LOW(RCK_8LEDQUET); 
....................       CHOT_IC_74573_B_GOI_DU_LIEU; 
.................... } 
.................... //HAM 502 
.................... //XXXXXXXXXXXXXXXXXXXXXXXXXXXXXXXXXXXXXXXXXXXX 
.................... //CHUONG TRINH CON XUAT 2 BYTE RA TAT 8 LED QUET 
.................... //XXXXXXXXXXXXXXXXXXXXXXXXXXXXXXXXXXXXXXXXXXXX 
.................... VOID XUAT_8LED_7DOAN_QUET_TAT_LED() 
.................... { 
....................    XUAT_8LED_7DOAN_QUET_1(0XFF,0XFF); 
.................... } 
.................... //HAM 503 
.................... //XXXXXXXXXXXXXXXXXXXXXXXXXXXXXXXXXXXXXXXXXXXX 
.................... //CHUONG TRINH CON HIEN THI LED THEO THU TU 
.................... //XXXXXXXXXXXXXXXXXXXXXXXXXXXXXXXXXXXXXXXXXXXX 
.................... CONST UNSIGNED CHAR TTLEDQUET[8]= {0x7F,0xBF,0xDF,0xEF,0xF7,0xFB,0xFD,0xFE}; 
.................... VOID XUAT_8LED_7DOAN_QUET_2(UNSIGNED INT THUTULED,SO_HTHI) 
.................... {          
....................       XUAT_1BYTE(~ (TTLEDQUET[THUTULED]));   XUAT_1BYTE(~SO_HTHI);      
....................       MO_8_LED_QUET; 
....................       MO_IC_74573_B_THONG_DL(); 
....................       OUTPUT_HIGH(RCK_8LEDQUET); OUTPUT_LOW(RCK_8LEDQUET); 
....................       CHOT_IC_74573_B_GOI_DU_LIEU; 
.................... } 
.................... //HAM 504 
.................... //XXXXXXXXXXXXXXXXXXXXXXXXXXXXXXXXXXXXXXXXXXXX 
.................... //CHUONG TRINH CON HIEN THI 8 SO TREN 8 LED QUET - CO KIEM TRA 
.................... //XXXXXXXXXXXXXXXXXXXXXXXXXXXXXXXXXXXXXXXXXXXX 
.................... UNSIGNED INT8 LED_7DQ[8]={0XFF,0XFF,0XFF,0XFF,0XFF,0XFF,0XFF,0XFF}; 
.................... UNSIGNED INT8 TT8LED=0; 
.................... VOID HIEN_THI_8LED_7DOAN_QUET() 
.................... {      
....................       FOR(TT8LED=0;TT8LED<8;TT8LED++) 
....................          IF (LED_7DQ[TT8LED]!=0XFF) 
....................          {            
....................             XUAT_8LED_7DOAN_QUET_2(TT8LED, LED_7DQ[TT8LED]); 
....................             //DELAY_US(100);  //THUC TE 
....................             DELAY_MS(20);     //MO PHONG PROTEUS 
....................             XUAT_8LED_7DOAN_QUET_TAT_LED();            
....................             } 
.................... } 
.................... //HAM 505 
.................... //XXXXXXXXXXXXXXXXXXXXXXXXXXXXXXXXXXXXXXXXXXXX 
.................... //CHUONG TRINH CON HIEN THI 8 SO TREN 8 LED QUET - KHONG KIEM TRA 
.................... //XXXXXXXXXXXXXXXXXXXXXXXXXXXXXXXXXXXXXXXXXXXX 
.................... VOID HIEN_THI_8LED_7DOAN_QUET_ALL() 
.................... {      
....................       FOR(TT8LED=0;TT8LED<8;TT8LED++)          
....................          {            
....................             XUAT_8LED_7DOAN_QUET_2(TT8LED, LED_7DQ[TT8LED]); 
....................             //DELAY_US(100);  //THUC TE 
....................             DELAY_MS(20);     //MO PHONG PROTEUS 
....................             XUAT_8LED_7DOAN_QUET_TAT_LED();            
....................             } 
.................... } 
....................  
.................... VOID DELAY_QUET_8LED(UNSIGNED INT16 DL) 
.................... {  
....................       UNSIGNED INT8 I; 
....................       FOR (I=0; I<DL;I++) 
....................       HIEN_THI_8LED_7DOAN_QUET_ALL(); 
.................... }  
....................  
.................... VOID GIAI_MA_GAN_CHO_8LED_QUET_16_XOA(UNSIGNED INT16 X) 
.................... {      
....................       LED_7DQ[0]= MA7DOAN [X %10];     
....................       LED_7DQ[1]= MA7DOAN [X/10%10]; 
....................       LED_7DQ[2]= MA7DOAN [X/100%10];     
....................       LED_7DQ[3]= MA7DOAN [X/1000%10]; 
....................       LED_7DQ[4]= MA7DOAN [X/10000%10]; 
....................       IF (LED_7DQ[4]==MASO0)  
....................       { 
....................             LED_7DQ[4]=0XFF; 
....................             IF (LED_7DQ[3]==MASO0)  
....................             { 
....................                LED_7DQ[3]=0XFF; 
....................                IF (LED_7DQ[2]==MASO0)  
....................                { 
....................                   LED_7DQ[2]=0XFF; 
....................                   IF (LED_7DQ[1]==MASO0)  
....................                   { 
....................                      LED_7DQ[1]=0XFF; 
....................                   } 
....................                } 
....................             } 
....................       } 
....................              
.................... } 
.................... //XXXXXXXXXXXXXXXXXXXXXXXXXXXXXXXXXXXXXXXXXXXX          
.................... VOID XUAT_2BYTE(UNSIGNED INT16 BYTE2XUAT) 
.................... { 
....................    INT8 SBB; 
....................    UNSIGNED INT16   XX;   //SHORT  BSERI; 
....................    #BIT BSERIX  = XX.15 
....................    XX = BYTE2XUAT; 
....................    FOR (SBB=0;SBB<16;SBB++) 
....................       {                                                  
....................          OUTPUT_BIT(SSDO,BSERIX);     
....................          OUTPUT_LOW(SSCK);          
....................          OUTPUT_HIGH(SSCK); 
....................          XX= XX<<1;          
....................      } 
.................... } 
.................... //XXXXXXXXXXXXXXXXXXXXXXXXXXXXXXXXXXXXXXXXXXXX 
.................... //CHUONG TRINH CON XUAT RA LED MA TRAN 
.................... //XXXXXXXXXXXXXXXXXXXXXXXXXXXXXXXXXXXXXXXXXXXX 
.................... VOID XUAT_MATRANLED(UNSIGNED INT16 MAHANG,UNSIGNED INT16 MACOT1, 
.................... UNSIGNED INT16 MACOT2,UNSIGNED INT16 MACOT3) 
.................... {       
....................       XUAT_2BYTE(MACOT3); 
....................       XUAT_2BYTE(MACOT2); 
....................       XUAT_2BYTE(MACOT1); 
....................       XUAT_2BYTE(MAHANG); 
....................        
....................       MO_LED_MATRAN; 
....................       MO_IC_74573_B_THONG_DL(); 
....................        
....................       OUTPUT_HIGH(RCK_MATRANLED); OUTPUT_LOW(RCK_MATRANLED);  
....................       CHOT_IC_74573_B_GOI_DU_LIEU; 
.................... } 
.................... //XXXXXXXXXXXXXXXXXXXXXXXXXXXXXXXXXXXXXXXXXXXX 
.................... //CHUONG TRINH CON XUAT RA LED MA TRAN 
.................... //XXXXXXXXXXXXXXXXXXXXXXXXXXXXXXXXXXXXXXXXXXXX 
.................... VOID TAT_MATRANLED() 
.................... {       
....................       XUAT_2BYTE(0); 
....................       XUAT_2BYTE(0); 
....................       XUAT_2BYTE(0); 
....................       XUAT_2BYTE(0);            
....................       OUTPUT_HIGH(RCK_MATRANLED);  
....................       OUTPUT_LOW(RCK_MATRANLED); 
.................... } 
.................... UNSIGNED  INT8 HIEU_CHINH_4BIT_CAO(UNSIGNED INT8 XZY) 
.................... { 
....................       INT1  BTG; 
....................       UNSIGNED INT8   BX;    
....................       #BIT BIT4  = BX.4 
....................       #BIT BIT5  = BX.5 
....................       #BIT BIT6  = BX.6 
....................       #BIT BIT7  = BX.7 
....................       BX=XZY; 
....................       BTG=BIT4;   BIT4=BIT7;  BIT7=BTG; 
....................       BTG=BIT5;   BIT5=BIT6;  BIT6=BTG;       
....................       RETURN(BX);   
.................... } 
.................... //HAM 601 
.................... //XXXXXXXXXXXXXXXXXXXXXXXXXXXXXXXXXXXXXXXXXXXXXXXXXXXX 
.................... //MODULE DIEU KHIEN RELAY,TRIAC, BUZZER, DONG CO, SIM 
.................... //XXXXXXXXXXXXXXXXXXXXXXXXXXXXXXXXXXXXXXXXXXXXXXXXXXXX 
.................... VOID XUAT_BUZZER_RELAY() 
.................... {      
....................    UNSIGNED INT8 RBDC1,RBDC2; 
....................       RBDC1=RBDC; RBDC2=RBDC>>8;       
....................       XUAT_1BYTE(RBDC2);       
....................       XUAT_1BYTE(RBDC1); 
....................       MO_RELAY_BUZZER_DC; 
....................       MO_IC_74573_B_THONG_DL(); 
....................        
....................       OUTPUT_HIGH(RCK_BUZERELAY);   OUTPUT_LOW(RCK_BUZERELAY); 
....................       CHOT_IC_74573_B_GOI_DU_LIEU; 
.................... } 
.................... //HAM 602 
.................... //XXXXXXXXXXXXXXXXXXXXXXXXXXXXXXXXXXXXXXXXXXXXXXXXXXXX 
.................... VOID BUZZER_ON() 
.................... {     
....................       BUZZER=1; 
....................       XUAT_BUZZER_RELAY();          
.................... } 
.................... //HAM 603 
.................... //XXXXXXXXXXXXXXXXXXXXXXXXXXXXXXXXXXXXXXXXXXXXXXXXXXXX 
.................... VOID BUZZER_OFF() 
.................... {      
....................       BUZZER=0; 
....................       XUAT_BUZZER_RELAY(); 
.................... } 
.................... //HAM 604 
.................... //XXXXXXXXXXXXXXXXXXXXXXXXXXXXXXXXXXXXXXXXXXXXXXXXXXXX 
.................... VOID RELAY_1_ON() 
.................... {     
....................       RELAY_1=1; 
....................       XUAT_BUZZER_RELAY();          
.................... } 
.................... //HAM 603 
.................... //XXXXXXXXXXXXXXXXXXXXXXXXXXXXXXXXXXXXXXXXXXXXXXXXXXXX 
.................... VOID RELAY_1_OFF() 
.................... {     
....................       RELAY_1=0; 
....................       XUAT_BUZZER_RELAY();          
.................... } 
.................... //HAM 604 
.................... //XXXXXXXXXXXXXXXXXXXXXXXXXXXXXXXXXXXXXXXXXXXXXXXXXXXX 
.................... VOID RELAY_2_ON() 
.................... {     
....................       RELAY_2=1; 
....................       XUAT_BUZZER_RELAY();          
.................... } 
.................... //HAM 607 
.................... //XXXXXXXXXXXXXXXXXXXXXXXXXXXXXXXXXXXXXXXXXXXXXXXXXXXX 
.................... VOID RELAY_2_OFF() 
.................... {     
....................       RELAY_2=0; 
....................       XUAT_BUZZER_RELAY();          
.................... } 
.................... //HAM 608 
.................... //XXXXXXXXXXXXXXXXXXXXXXXXXXXXXXXXXXXXXXXXXXXXXXXXXXXX 
.................... VOID RELAY_1_RELAY_2_ON() 
.................... {     
....................       RELAY_1=1;  RELAY_2=1; 
....................       XUAT_BUZZER_RELAY();          
.................... } 
.................... //HAM 609 
.................... //XXXXXXXXXXXXXXXXXXXXXXXXXXXXXXXXXXXXXXXXXXXXXXXXXXXX 
.................... VOID RELAY_1_RELAY_2_OFF() 
.................... {     
....................       RELAY_1=0;  RELAY_2=0; 
....................       XUAT_BUZZER_RELAY();          
.................... } 
.................... //HAM 610 
.................... //XXXXXXXXXXXXXXXXXXXXXXXXXXXXXXXXXXXXXXXXXXXXXXXXXXXX 
.................... VOID TRIAC_1_ON() 
.................... {     
....................       TRIAC_1=1; 
....................       XUAT_BUZZER_RELAY();          
.................... } 
.................... //HAM 611 
.................... //XXXXXXXXXXXXXXXXXXXXXXXXXXXXXXXXXXXXXXXXXXXXXXXXXXXX 
.................... VOID TRIAC_1_OFF() 
.................... {     
....................       TRIAC_1=0; 
....................       XUAT_BUZZER_RELAY();          
.................... } 
.................... //HAM 612 
.................... //XXXXXXXXXXXXXXXXXXXXXXXXXXXXXXXXXXXXXXXXXXXXXXXXXXXX 
.................... VOID TRIAC_2_ON() 
.................... {     
....................       TRIAC_2=1; 
....................       XUAT_BUZZER_RELAY();          
.................... } 
.................... //HAM 613 
.................... //XXXXXXXXXXXXXXXXXXXXXXXXXXXXXXXXXXXXXXXXXXXXXXXXXXXX 
.................... VOID TRIAC_2_OFF() 
.................... {     
....................       TRIAC_2=0; 
....................       XUAT_BUZZER_RELAY();          
.................... } 
.................... //XXXXXXXXXXXXXXXXXXXXXXXXXXXXXXXXXXXXXXXXXXXX 
....................  
....................  
....................  
.................... #include <tv_pickit2_shift_lcd.c> 
.................... UNSIGNED INT8 LCD_CONTROL;   
.................... #bit LCD_P = LCD_CONTROL.3 
.................... #bit LCD_RS = LCD_CONTROL.2 
.................... #bit LCD_RW = LCD_CONTROL.1 
.................... #bit LCD_E  = LCD_CONTROL.0 
....................  
.................... #DEFINE LCD_FUNCTION_SET       0X38 
.................... #DEFINE LCD_DISPLAY_CONTROL    0X0C 
.................... #DEFINE LCD_CLEAR_DISPLAY      0X01 
.................... #DEFINE LCD_ENTRY_MODE         0X06 
.................... #DEFINE LCD_SHIFT_LEFT         0X18 
.................... #DEFINE LCD_SHIFT_RIGHT        0X1C 
....................  
.................... #DEFINE LCD_ADDR_LINE1         0X80 
.................... #DEFINE LCD_ADDR_LINE2         0XC0 
.................... #DEFINE LCD_ADDR_LINE3         0X94 
.................... #DEFINE LCD_ADDR_LINE4         0XD4 
....................  
.................... VOID LCD_XUAT_8BIT(INT8 LCD_DATA_X) 
.................... { 
....................       LCD_E=1; XUAT_LCD20X4(LCD_CONTROL,LCD_DATA_X);      
01AA:  BSF    2C.0
01AC:  MOVFF  2C,3D
01B0:  MOVFF  3C,3E
01B4:  RCALL  019A
....................       LCD_E=0; XUAT_LCD20X4(LCD_CONTROL,LCD_DATA_X);  
01B6:  BCF    2C.0
01B8:  MOVFF  2C,3D
01BC:  MOVFF  3C,3E
01C0:  RCALL  019A
01C2:  RETURN 0
.................... } 
.................... void LCD_COMMAND(INT8 LCD_DATA_X)    
....................   { 
....................       LCD_RS = 0; 
01C4:  BCF    2C.2
....................       LCD_XUAT_8BIT(LCD_DATA_X); 
01C6:  MOVFF  3B,3C
01CA:  RCALL  01AA
....................       DELAY_US(20); 
01CC:  MOVLW  20
01CE:  MOVWF  00
01D0:  DECFSZ 00,F
01D2:  BRA    01D0
01D4:  BRA    01D6
01D6:  NOP   
01D8:  RETURN 0
....................   } 
.................... void LCD_DATA(INT8 LCD_DATA_X)        
....................   { 
....................       LCD_RS = 1;      
*
0262:  BSF    2C.2
....................       LCD_XUAT_8BIT(LCD_DATA_X); 
0264:  MOVFF  3A,3C
0268:  RCALL  01AA
....................       DELAY_US(20); 
026A:  MOVLW  20
026C:  MOVWF  00
026E:  DECFSZ 00,F
0270:  BRA    026E
0272:  BRA    0274
0274:  NOP   
0276:  RETURN 0
....................   } 
....................    
.................... VOID SETUP_LCD () 
.................... {                      
....................          LCD_E  = 0;  
*
0200:  BCF    2C.0
....................          LCD_RW = 0;  
0202:  BCF    2C.1
....................          LCD_RS = 1;  
0204:  BSF    2C.2
....................          LCD_P =0; 
0206:  BCF    2C.3
....................          LCD_COMMAND(LCD_FUNCTION_SET);          
0208:  MOVLW  38
020A:  MOVWF  3B
020C:  RCALL  01C4
....................          DELAY_US(40); 
020E:  MOVLW  42
0210:  MOVWF  00
0212:  DECFSZ 00,F
0214:  BRA    0212
0216:  NOP   
....................          LCD_COMMAND(LCD_DISPLAY_CONTROL);    
0218:  MOVLW  0C
021A:  MOVWF  3B
021C:  RCALL  01C4
....................          DELAY_US(40); 
021E:  MOVLW  42
0220:  MOVWF  00
0222:  DECFSZ 00,F
0224:  BRA    0222
0226:  NOP   
....................          LCD_COMMAND(LCD_CLEAR_DISPLAY);       
0228:  MOVLW  01
022A:  MOVWF  3B
022C:  RCALL  01C4
....................          DELAY_MS(2); 
022E:  MOVLW  02
0230:  MOVWF  38
0232:  RCALL  01DA
....................          LCD_COMMAND(LCD_ENTRY_MODE);        
0234:  MOVLW  06
0236:  MOVWF  3B
0238:  RCALL  01C4
....................          DELAY_US(40);                 
023A:  MOVLW  42
023C:  MOVWF  00
023E:  DECFSZ 00,F
0240:  BRA    023E
0242:  NOP   
0244:  GOTO   0522 (RETURN)
.................... } 
....................  
.................... CONST UNSIGNED CHAR LCD_SO_X[11][6] ={ 
....................                   0,1,2,5,3,4,               // SO 0 
....................                   1,2,32,3,7,3,              // SO 1 
....................                   6,6,2,5,3,3,               // SO 2 
....................                   6,6,2,3,3,4,               // SO 3 
....................                   7,3,7,32,32,7,             // SO 4 
....................                   7,6,6,3,3,4,               // SO 5 
....................                   0,6,6,5,3,4,               // SO 6 
....................                   1,1,7,32,32,7,             // SO 7 
....................                   0,6,2,5,3,4,               // SO 8 
....................                   0,6,2,3,3,4, 
....................                   32,32,32,32,32,32};             // SO 9 
....................                    
.................... CONST UNSIGNED CHAR LCD_SO_XX[10][9] ={ 
....................                   0,1,2,7,32,7,5,3,4,               // SO 0 
....................                   1,2,32,3,7,3,              // SO 1 
....................                   6,6,2,5,3,3,               // SO 2 
....................                   6,6,2,3,3,4,               // SO 3 
....................                   7,3,7,32,32,7,             // SO 4 
....................                   7,6,6,3,3,4,               // SO 5 
....................                   0,6,6,5,3,4,               // SO 6 
....................                   1,1,7,32,32,7,             // SO 7 
....................                   0,6,2,5,3,4,               // SO 8 
....................                   0,6,2,3,3,4};             // SO 9          
.................... //!CONST UNSIGNED CHAR LCD_SO_X[10][6] = 
.................... //!{ 
.................... //!                  0,1,2,3,4,5,               // SO 0 
.................... //!                  1,2,32,3,7,3,              // SO 1 
.................... //!                  6,6,2,4,3,3,               // SO 2 
.................... //!                  6,6,2,3,3,5,               // SO 3 
.................... //!                  7,3,7,32,32,7,             // SO 4 
.................... //!                  7,6,6,3,3,5,               // SO 5 
.................... //!                  0,6,6,4,3,5,               // SO 6 
.................... //!                  1,1,7,32,32,7,             // SO 7 
.................... //!                  0,6,2,4,3,5,               // SO 8 
.................... //!                  0,6,2,3,3,5};             // SO 9    
....................                    
.................... CONST UNSIGNED CHAR LCD_MA_8DOAN[] = { 
....................    0x07,0x0F,0x1F,0x1F,0x1F,0x1F,0x1F,0x1F,  //DOAN F - 0 
....................    0x1F,0x1F,0x1F,0X00,0X00,0X00,0X00,0X00,  //DOAN A - 1 
....................    0x1C,0x1E,0x1F,0x1F,0x1F,0x1F,0x1F,0x1F,  //DOAN B - 2 
....................    0X00,0X00,0X00,0X00,0X00,0x1F,0x1F,0x1F,  //DOAN D - 3 
....................    0x1F,0x1F,0x1F,0x1F,0x1F,0x1F,0x1E,0x1C,  //DOAN C - 4 
....................    0x1F,0x1F,0x1F,0x1F,0x1F,0x1F,0x0F,0x07,  //DOAN E - 5 
....................    0x1F,0x1F,0x1F,0X00,0X00,0X00,0x1F,0x1F,  //DOAN G+D-6  
....................    0x1F,0x1F,0x1F,0x1F,0x1F,0x1F,0x1F,0x1F}; //DOAN I  -7 
....................     
.................... VOID LCD_GOTO_XY(SIGNED INT8 X, SIGNED INT8 Y) 
.................... {  
....................    CONST UNSIGNED INT8 LCD_VITRI[]={0x80,0xC0,0x94,0xD4}; 
....................    LCD_COMMAND(LCD_VITRI[X]+Y); 
0248:  CLRF   03
024A:  MOVF   38,W
024C:  MOVFF  FF2,3A
0250:  BCF    FF2.7
0252:  RCALL  00C0
0254:  BTFSC  3A.7
0256:  BSF    FF2.7
0258:  ADDWF  39,W
025A:  MOVWF  3A
025C:  MOVWF  3B
025E:  RCALL  01C4
0260:  RETURN 0
.................... } 
....................  
.................... VOID XXX() 
.................... {  
....................    SIGNED INT8 X; 
....................    X= LCD_SO_X[0][0]; 
....................    X= LCD_MA_8DOAN[0]; 
.................... } 
....................  
.................... signed INT8 giay, phut, gio, gia_tri_mod, bdn; 
.................... signed INT8 DV_GIO, CH_GIO, DV_PHUT, CH_PHUT, DV_GIAY, CH_GIAY; 
.................... #INT_timer1 
.................... void interrupt_timer1() 
.................... { 
....................    bdn++; 
*
00DE:  INCF   31,F
....................    set_timer1 (3036); 
00E0:  MOVLW  0B
00E2:  MOVWF  FCF
00E4:  MOVLW  DC
00E6:  MOVWF  FCE
00E8:  BCF    F9E.0
00EA:  GOTO   0054
.................... } 
....................  
.................... VOID GM_LCD() 
.................... { 
....................    DV_GIAY = GIAY % 10 + 0X30; 
*
030C:  MOVFF  2D,39
0310:  MOVLW  0A
0312:  MOVWF  3A
0314:  RCALL  02C4
0316:  MOVLW  30
0318:  ADDWF  00,W
031A:  MOVWF  36
....................    CH_GIAY = GIAY / 10 % 10 + 0X30; 
031C:  MOVFF  2D,39
0320:  MOVLW  0A
0322:  MOVWF  3A
0324:  RCALL  02C4
0326:  MOVFF  01,39
032A:  MOVLW  0A
032C:  MOVWF  3A
032E:  RCALL  02C4
0330:  MOVLW  30
0332:  ADDWF  00,W
0334:  MOVWF  37
....................     
....................    DV_PHUT = PHUT % 10 + 0X30; 
0336:  MOVFF  2E,39
033A:  MOVLW  0A
033C:  MOVWF  3A
033E:  RCALL  02C4
0340:  MOVLW  30
0342:  ADDWF  00,W
0344:  MOVWF  34
....................    CH_PHUT = PHUT / 10 % 10 + 0X30; 
0346:  MOVFF  2E,39
034A:  MOVLW  0A
034C:  MOVWF  3A
034E:  RCALL  02C4
0350:  MOVFF  01,39
0354:  MOVLW  0A
0356:  MOVWF  3A
0358:  RCALL  02C4
035A:  MOVLW  30
035C:  ADDWF  00,W
035E:  MOVWF  35
....................     
....................    DV_GIO = GIO % 10 + 0X30; 
0360:  MOVFF  2F,39
0364:  MOVLW  0A
0366:  MOVWF  3A
0368:  RCALL  02C4
036A:  MOVLW  30
036C:  ADDWF  00,W
036E:  MOVWF  32
....................    CH_GIO = GIO / 10 % 10 + 0X30; 
0370:  MOVFF  2F,39
0374:  MOVLW  0A
0376:  MOVWF  3A
0378:  RCALL  02C4
037A:  MOVFF  01,39
037E:  MOVLW  0A
0380:  MOVWF  3A
0382:  RCALL  02C4
0384:  MOVLW  30
0386:  ADDWF  00,W
0388:  MOVWF  33
038A:  RETURN 0
.................... } 
....................  
.................... VOID HT_LCD  () 
.................... { 
....................    LCD_GOTO_XY (0, 12) ; 
038C:  CLRF   38
038E:  MOVLW  0C
0390:  MOVWF  39
0392:  RCALL  0248
....................     
....................    LCD_DATA (CH_GIO); 
0394:  MOVFF  33,3A
0398:  RCALL  0262
....................    LCD_DATA (DV_GIO); 
039A:  MOVFF  32,3A
039E:  RCALL  0262
....................    lcd_data (' '); 
03A0:  MOVLW  20
03A2:  MOVWF  3A
03A4:  RCALL  0262
....................     
....................    LCD_DATA (CH_PHUT); 
03A6:  MOVFF  35,3A
03AA:  RCALL  0262
....................    LCD_DATA (DV_PHUT); 
03AC:  MOVFF  34,3A
03B0:  RCALL  0262
....................    lcd_data (' '); 
03B2:  MOVLW  20
03B4:  MOVWF  3A
03B6:  RCALL  0262
....................     
....................    LCD_DATA (CH_GIAY); 
03B8:  MOVFF  37,3A
03BC:  RCALL  0262
....................    LCD_DATA (DV_GIAY); 
03BE:  MOVFF  36,3A
03C2:  RCALL  0262
03C4:  GOTO   0576 (RETURN)
.................... } 
....................  
....................  
....................  
.................... VOID tat_2led_chinh_LCD  () 
.................... { 
....................    IF (gia_tri_mod == 1){CH_GIO = ' '; DV_GIO = ' '; } 
*
029A:  DECFSZ 30,W
029C:  BRA    02A6
029E:  MOVLW  20
02A0:  MOVWF  33
02A2:  MOVWF  32
02A4:  BRA    02C0
....................    else IF (gia_tri_mod == 2){CH_PHUT = ' '; DV_PHUT = ' '; } 
02A6:  MOVF   30,W
02A8:  SUBLW  02
02AA:  BNZ   02B4
02AC:  MOVLW  20
02AE:  MOVWF  35
02B0:  MOVWF  34
02B2:  BRA    02C0
....................    else IF (gia_tri_mod == 3){CH_GIAY = ' '; DV_GIAY = ' '; } 
02B4:  MOVF   30,W
02B6:  SUBLW  03
02B8:  BNZ   02C0
02BA:  MOVLW  20
02BC:  MOVWF  37
02BE:  MOVWF  36
02C0:  GOTO   0566 (RETURN)
.................... } 
....................  
....................  
.................... VOID phim_mod () 
.................... { 
....................    IF (!input (BT1)) 
*
03F4:  BSF    F93.4
03F6:  BTFSC  F81.4
03F8:  BRA    0440
....................    { 
....................       delay_ms (20); 
03FA:  MOVLW  14
03FC:  MOVWF  38
03FE:  RCALL  01DA
....................       IF (!input (BT1)) 
0400:  BSF    F93.4
0402:  BTFSC  F81.4
0404:  BRA    0440
....................       { 
....................          gia_tri_mod++; 
0406:  INCF   30,F
....................          IF (gia_tri_mod >= 4) gia_tri_mod = 0; 
0408:  BTFSC  30.7
040A:  BRA    0414
040C:  MOVF   30,W
040E:  SUBLW  03
0410:  BC    0414
0412:  CLRF   30
....................           
....................          xuat_4led_7doan_4so (0xff, 0xff, 0xff, ma7doan[gia_tri_mod % 10]); 
0414:  MOVFF  30,39
0418:  MOVLW  0A
041A:  MOVWF  3A
041C:  RCALL  02C4
041E:  CLRF   03
0420:  MOVF   00,W
0422:  MOVFF  FF2,38
0426:  BCF    FF2.7
0428:  RCALL  0096
042A:  BTFSC  38.7
042C:  BSF    FF2.7
042E:  MOVWF  38
0430:  SETF   39
0432:  SETF   3A
0434:  SETF   3B
0436:  MOVWF  3C
0438:  BRA    03C8
....................          WHILE (!input (BT1)) ; 
043A:  BSF    F93.4
043C:  BTFSS  F81.4
043E:  BRA    043A
....................       } 
....................    } 
0440:  GOTO   0578 (RETURN)
.................... } 
....................  
.................... //xxxxxxxxxxxxxxxxxxxxxxxxxxxxxxxxxxxxxxxxxxxx 
.................... VOID phim_dw () 
.................... { 
....................    IF (!input (BT0)) 
*
049A:  BSF    F93.5
049C:  BTFSC  F81.5
049E:  BRA    04EC
....................    { 
....................       delay_ms (20); 
04A0:  MOVLW  14
04A2:  MOVWF  38
04A4:  RCALL  01DA
....................       IF (!input (BT0)) 
04A6:  BSF    F93.5
04A8:  BTFSC  F81.5
04AA:  BRA    04EC
....................       { 
....................           
....................          SWITCH (gia_tri_mod) 
04AC:  MOVF   30,W
04AE:  XORLW  01
04B0:  BZ    04BC
04B2:  XORLW  03
04B4:  BZ    04CA
04B6:  XORLW  01
04B8:  BZ    04D8
04BA:  BRA    04E6
....................          { 
....................             case 1: IF (gio == 0) gio = 23; 
04BC:  MOVF   2F,F
04BE:  BNZ   04C6
04C0:  MOVLW  17
04C2:  MOVWF  2F
04C4:  BRA    04C8
....................             ELSE gio--; 
04C6:  DECF   2F,F
....................             BREAK; 
04C8:  BRA    04E6
....................              
....................             case 2: IF (phut == 0) phut = 59; 
04CA:  MOVF   2E,F
04CC:  BNZ   04D4
04CE:  MOVLW  3B
04D0:  MOVWF  2E
04D2:  BRA    04D6
....................             ELSE phut--; 
04D4:  DECF   2E,F
....................             BREAK; 
04D6:  BRA    04E6
....................              
....................             case 3: IF (giay == 0) giay = 59; 
04D8:  MOVF   2D,F
04DA:  BNZ   04E2
04DC:  MOVLW  3B
04DE:  MOVWF  2D
04E0:  BRA    04E4
....................             ELSE giay--; 
04E2:  DECF   2D,F
....................             BREAK; 
04E4:  BRA    04E6
....................              
....................             DEFAULT: break; 
....................          } 
....................  
....................           
....................          WHILE (!input (BT0)) ; 
04E6:  BSF    F93.5
04E8:  BTFSS  F81.5
04EA:  BRA    04E6
....................       } 
....................    } 
04EC:  GOTO   057C (RETURN)
.................... } 
....................  
.................... //xxxxxxxxxxxxxxxxxxxxxxxxxxxxxxxxxxxxxxxxxxxx 
.................... VOID phim_up () 
.................... { 
....................    IF (!input (BT2)) 
*
0444:  BSF    F93.3
0446:  BTFSC  F81.3
0448:  BRA    0496
....................    { 
....................       delay_ms (20); 
044A:  MOVLW  14
044C:  MOVWF  38
044E:  RCALL  01DA
....................       IF (!input (BT2)) 
0450:  BSF    F93.3
0452:  BTFSC  F81.3
0454:  BRA    0496
....................       { 
....................          SWITCH (gia_tri_mod) 
0456:  MOVF   30,W
0458:  XORLW  01
045A:  BZ    0466
045C:  XORLW  03
045E:  BZ    0474
0460:  XORLW  01
0462:  BZ    0482
0464:  BRA    0490
....................          { 
....................             case 1: IF (gio == 23) gio = 0; 
0466:  MOVF   2F,W
0468:  SUBLW  17
046A:  BNZ   0470
046C:  CLRF   2F
046E:  BRA    0472
....................             ELSE gio++; 
0470:  INCF   2F,F
....................             BREAK; 
0472:  BRA    0490
....................              
....................              
....................             case 2: IF (phut == 59) phut = 0; 
0474:  MOVF   2E,W
0476:  SUBLW  3B
0478:  BNZ   047E
047A:  CLRF   2E
047C:  BRA    0480
....................             ELSE phut++; 
047E:  INCF   2E,F
....................             BREAK; 
0480:  BRA    0490
....................              
....................             case 3: IF (giay == 59) giay = 0; 
0482:  MOVF   2D,W
0484:  SUBLW  3B
0486:  BNZ   048C
0488:  CLRF   2D
048A:  BRA    048E
....................             ELSE giay++; 
048C:  INCF   2D,F
....................             BREAK; 
048E:  BRA    0490
....................              
....................             DEFAULT: break; 
....................          } 
....................  
....................          WHILE (!input (BT2)) ; 
0490:  BSF    F93.3
0492:  BTFSS  F81.3
0494:  BRA    0490
....................       } 
....................    } 
0496:  GOTO   057A (RETURN)
.................... } 
....................  
.................... VOID lcd_hienthi_dongho () 
.................... { 
....................    lcd_GOTO_xy (0, 12); 
....................    delay_us (20); 
....................    lcd_data (gio / 10 + 0x30) ; 
....................    lcd_data (gio % 10 + 0x30) ; 
....................    lcd_data (' '); 
....................    lcd_data (phut / 10 + 0x30) ; 
....................    lcd_data (phut % 10 + 0x30) ; 
....................    lcd_GOTO_xy (0, 18); 
....................    delay_us (20); 
....................    lcd_data (giay / 10 + 0x30) ; 
....................    lcd_data (giay % 10 + 0x30) ; 
.................... } 
....................  
.................... VOID main () 
*
04F0:  CLRF   FF8
04F2:  BCF    FD0.7
04F4:  BSF    07.7
04F6:  CLRF   18
04F8:  CLRF   1F
04FA:  CLRF   20
04FC:  CLRF   21
04FE:  CLRF   22
0500:  CLRF   2B
0502:  MOVF   FC1,W
0504:  ANDLW  C0
0506:  IORLW  0F
0508:  MOVWF  FC1
050A:  MOVLW  07
050C:  MOVWF  FB4
050E:  SETF   23
0510:  SETF   24
0512:  SETF   25
0514:  SETF   26
0516:  SETF   27
0518:  SETF   28
051A:  SETF   29
051C:  SETF   2A
.................... { 
....................    set_up_port_ic_chot (); 
051E:  BRA    00F8
....................    setup_lcd (); 
0520:  BRA    0200
....................    lcd_GOTO_xy (0, 0) ; 
0522:  CLRF   38
0524:  CLRF   39
0526:  RCALL  0248
....................    lcd_data ("dong ho:"); 
0528:  MOVLW  EE
052A:  MOVWF  FF6
052C:  MOVLW  00
052E:  MOVWF  FF7
0530:  BRA    0278
....................     
....................    setup_timer_1 (t1_internal|t1_div_by_8); 
0532:  MOVLW  B5
0534:  MOVWF  FCD
....................    set_timer1 (3036); 
0536:  MOVLW  0B
0538:  MOVWF  FCF
053A:  MOVLW  DC
053C:  MOVWF  FCE
....................    enable_interrupts (global); 
053E:  MOVLW  C0
0540:  IORWF  FF2,F
....................    enable_interrupts (INT_timer1); 
0542:  BSF    F9D.0
....................    giay = 0; 
0544:  CLRF   2D
....................    phut = 0; 
0546:  CLRF   2E
....................    gio = 0; 
0548:  CLRF   2F
....................    gia_tri_mod = 0; 
054A:  CLRF   30
....................     
....................     
....................    WHILE (true) 
....................    { 
....................       // ! lcd_hienthi_dongho (); 
....................       // ! delay_ms (100); 
....................       // ! giay++; 
....................       delay_ms (50); 
054C:  MOVLW  32
054E:  MOVWF  38
0550:  RCALL  01DA
....................       IF (bdn < 10) 
0552:  BTFSC  31.7
0554:  BRA    055C
0556:  MOVF   31,W
0558:  SUBLW  09
055A:  BNC   057E
....................       { 
....................          IF (gia_tri_mod != 0) 
055C:  MOVF   30,F
055E:  BZ    0572
....................          { 
....................             IF (bdn == 0) 
0560:  MOVF   31,F
0562:  BNZ   0568
....................             { 
....................                tat_2led_chinh_LCD (); 
0564:  BRA    029A
....................             } 
0566:  BRA    0570
....................  
....................             else IF (bdn == 5) 
0568:  MOVF   31,W
056A:  SUBLW  05
056C:  BNZ   0570
....................             { 
....................                 
....................                GM_LCD (); 
056E:  RCALL  030C
....................             } 
....................          } 
0570:  BRA    0574
....................  
....................          ELSE 
....................          GM_LCD (); 
0572:  RCALL  030C
....................           
....................           
....................          HT_LCD (); 
0574:  BRA    038C
....................           
....................          phim_mod (); 
0576:  BRA    03F4
....................          phim_up (); 
0578:  BRA    0444
....................          phim_dw (); 
057A:  BRA    049A
....................       } 
057C:  BRA    05A0
....................  
....................       ELSE 
....................       { 
....................          bdn = bdn - 10; 
057E:  MOVLW  0A
0580:  SUBWF  31,F
....................          giay++; 
0582:  INCF   2D,F
....................          IF (giay == 60) 
0584:  MOVF   2D,W
0586:  SUBLW  3C
0588:  BNZ   05A0
....................          { 
....................             giay = 0; 
058A:  CLRF   2D
....................             phut++; 
058C:  INCF   2E,F
....................             IF (phut == 60) 
058E:  MOVF   2E,W
0590:  SUBLW  3C
0592:  BNZ   05A0
....................             { 
....................                phut = 0; 
0594:  CLRF   2E
....................                gio++; 
0596:  INCF   2F,F
....................                IF (gio == 24) gio = 0; 
0598:  MOVF   2F,W
059A:  SUBLW  18
059C:  BNZ   05A0
059E:  CLRF   2F
....................             } 
....................          } 
....................  
....................           
....................          //GM_LCD (); 
....................       } 
05A0:  BRA    054C
....................    } 
.................... } 
....................  
05A2:  SLEEP 
....................  

Configuration Fuses:
   Word  1: CC27   PLL12 CPUDIV1 USBDIV HS FCMEN IESO
   Word  2: 1E3E   PUT BROWNOUT BORV21 VREGEN NOWDT WDT32768
   Word  3: 8700   CCP2C1 PBADEN LPT1OSC MCLR
   Word  4: 00A1   STVREN NOLVP ICSP2 NOXINST NODEBUG
   Word  5: C00F   NOPROTECT NOCPB NOCPD
   Word  6: E00F   NOWRT NOWRTC NOWRTB NOWRTD
   Word  7: 400F   NOEBTR NOEBTRB
